; Function Attrs: nounwind uwtable
define ptr @l_Lean_Compiler_LCNF_Simp_inlineCandidate_x3f___lambda__7___boxed(ptr noundef %0, ptr noundef %1, ptr noundef %2, ptr noundef %3, ptr noundef %4, ptr noundef %5, ptr noundef %6, ptr noundef %7, ptr noundef %8, ptr noundef %9, ptr noundef %10, ptr noundef %11, ptr noundef %12, ptr noundef %13) #1 {
  %15 = ptrtoint ptr %4 to i64
  %16 = lshr i64 %15, 1
  %17 = trunc i64 %16 to i8
  %18 = and i64 %15, 1
  %.not = icmp eq i64 %18, 0
  br i1 %.not, label %19, label %lean_dec.exit31

19:                                               ; preds = %14
  %20 = load i32, ptr %4, align 4, !tbaa !10
  %21 = icmp sgt i32 %20, 1
  br i1 %21, label %22, label %24, !prof !13

22:                                               ; preds = %19
  %23 = add nsw i32 %20, -1
  store i32 %23, ptr %4, align 4, !tbaa !10
  br label %lean_dec.exit31

24:                                               ; preds = %19
  %.not.i = icmp eq i32 %20, 0
  br i1 %.not.i, label %lean_dec.exit31, label %25

25:                                               ; preds = %24
  tail call void @lean_dec_ref_cold(ptr noundef nonnull %4) #5
  br label %lean_dec.exit31

lean_dec.exit31:                                  ; preds = %25, %24, %22, %14
  %26 = tail call ptr @l_Lean_Compiler_LCNF_Simp_inlineCandidate_x3f___lambda__7(ptr noundef %0, ptr noundef %1, ptr noundef %2, ptr noundef %3, i8 noundef zeroext %17, ptr poison, ptr poison, ptr noundef %7, ptr noundef %8, ptr noundef %9, ptr noundef %10, ptr noundef %11, ptr noundef %12, ptr noundef %13)
  %27 = ptrtoint ptr %12 to i64
  %28 = and i64 %27, 1
  %.not48 = icmp eq i64 %28, 0
  br i1 %.not48, label %29, label %lean_dec.exit30

29:                                               ; preds = %lean_dec.exit31
  %30 = load i32, ptr %12, align 4, !tbaa !10
  %31 = icmp sgt i32 %30, 1
  br i1 %31, label %32, label %34, !prof !13

32:                                               ; preds = %29
  %33 = add nsw i32 %30, -1
  store i32 %33, ptr %12, align 4, !tbaa !10
  br label %lean_dec.exit30

34:                                               ; preds = %29
  %.not.i32 = icmp eq i32 %30, 0
  br i1 %.not.i32, label %lean_dec.exit30, label %35

35:                                               ; preds = %34
  tail call void @lean_dec_ref_cold(ptr noundef nonnull %12) #5
  br label %lean_dec.exit30

lean_dec.exit30:                                  ; preds = %35, %34, %32, %lean_dec.exit31
  %36 = ptrtoint ptr %11 to i64
  %37 = and i64 %36, 1
  %.not49 = icmp eq i64 %37, 0
  br i1 %.not49, label %38, label %lean_dec.exit29

38:                                               ; preds = %lean_dec.exit30
  %39 = load i32, ptr %11, align 4, !tbaa !10
  %40 = icmp sgt i32 %39, 1
  br i1 %40, label %41, label %43, !prof !13

41:                                               ; preds = %38
  %42 = add nsw i32 %39, -1
  store i32 %42, ptr %11, align 4, !tbaa !10
  br label %lean_dec.exit29

43:                                               ; preds = %38
  %.not.i34 = icmp eq i32 %39, 0
  br i1 %.not.i34, label %lean_dec.exit29, label %44

44:                                               ; preds = %43
  tail call void @lean_dec_ref_cold(ptr noundef nonnull %11) #5
  br label %lean_dec.exit29

lean_dec.exit29:                                  ; preds = %44, %43, %41, %lean_dec.exit30
  %45 = ptrtoint ptr %10 to i64
  %46 = and i64 %45, 1
  %.not50 = icmp eq i64 %46, 0
  br i1 %.not50, label %47, label %lean_dec.exit28

47:                                               ; preds = %lean_dec.exit29
  %48 = load i32, ptr %10, align 4, !tbaa !10
  %49 = icmp sgt i32 %48, 1
  br i1 %49, label %50, label %52, !prof !13

50:                                               ; preds = %47
  %51 = add nsw i32 %48, -1
  store i32 %51, ptr %10, align 4, !tbaa !10
  br label %lean_dec.exit28

52:                                               ; preds = %47
  %.not.i36 = icmp eq i32 %48, 0
  br i1 %.not.i36, label %lean_dec.exit28, label %53

53:                                               ; preds = %52
  tail call void @lean_dec_ref_cold(ptr noundef nonnull %10) #5
  br label %lean_dec.exit28

lean_dec.exit28:                                  ; preds = %53, %52, %50, %lean_dec.exit29
  %54 = ptrtoint ptr %9 to i64
  %55 = and i64 %54, 1
  %.not51 = icmp eq i64 %55, 0
  br i1 %.not51, label %56, label %lean_dec.exit27

56:                                               ; preds = %lean_dec.exit28
  %57 = load i32, ptr %9, align 4, !tbaa !10
  %58 = icmp sgt i32 %57, 1
  br i1 %58, label %59, label %61, !prof !13

59:                                               ; preds = %56
  %60 = add nsw i32 %57, -1
  store i32 %60, ptr %9, align 4, !tbaa !10
  br label %lean_dec.exit27

61:                                               ; preds = %56
  %.not.i38 = icmp eq i32 %57, 0
  br i1 %.not.i38, label %lean_dec.exit27, label %62

62:                                               ; preds = %61
  tail call void @lean_dec_ref_cold(ptr noundef nonnull %9) #5
  br label %lean_dec.exit27

lean_dec.exit27:                                  ; preds = %62, %61, %59, %lean_dec.exit28
  %63 = ptrtoint ptr %8 to i64
  %64 = and i64 %63, 1
  %.not52 = icmp eq i64 %64, 0
  br i1 %.not52, label %65, label %lean_dec.exit26

65:                                               ; preds = %lean_dec.exit27
  %66 = load i32, ptr %8, align 4, !tbaa !10
  %67 = icmp sgt i32 %66, 1
  br i1 %67, label %68, label %70, !prof !13

68:                                               ; preds = %65
  %69 = add nsw i32 %66, -1
  store i32 %69, ptr %8, align 4, !tbaa !10
  br label %lean_dec.exit26

70:                                               ; preds = %65
  %.not.i40 = icmp eq i32 %66, 0
  br i1 %.not.i40, label %lean_dec.exit26, label %71

71:                                               ; preds = %70
  tail call void @lean_dec_ref_cold(ptr noundef nonnull %8) #5
  br label %lean_dec.exit26

lean_dec.exit26:                                  ; preds = %71, %70, %68, %lean_dec.exit27
  %72 = ptrtoint ptr %7 to i64
  %73 = and i64 %72, 1
  %.not53 = icmp eq i64 %73, 0
  br i1 %.not53, label %74, label %lean_dec.exit25

74:                                               ; preds = %lean_dec.exit26
  %75 = load i32, ptr %7, align 4, !tbaa !10
  %76 = icmp sgt i32 %75, 1
  br i1 %76, label %77, label %79, !prof !13

77:                                               ; preds = %74
  %78 = add nsw i32 %75, -1
  store i32 %78, ptr %7, align 4, !tbaa !10
  br label %lean_dec.exit25

79:                                               ; preds = %74
  %.not.i42 = icmp eq i32 %75, 0
  br i1 %.not.i42, label %lean_dec.exit25, label %80

80:                                               ; preds = %79
  tail call void @lean_dec_ref_cold(ptr noundef nonnull %7) #5
  br label %lean_dec.exit25

lean_dec.exit25:                                  ; preds = %80, %79, %77, %lean_dec.exit26
  %81 = ptrtoint ptr %6 to i64
  %82 = and i64 %81, 1
  %.not54 = icmp eq i64 %82, 0
  br i1 %.not54, label %83, label %lean_dec.exit24

83:                                               ; preds = %lean_dec.exit25
  %84 = load i32, ptr %6, align 4, !tbaa !10
  %85 = icmp sgt i32 %84, 1
  br i1 %85, label %86, label %88, !prof !13

86:                                               ; preds = %83
  %87 = add nsw i32 %84, -1
  store i32 %87, ptr %6, align 4, !tbaa !10
  br label %lean_dec.exit24

88:                                               ; preds = %83
  %.not.i44 = icmp eq i32 %84, 0
  br i1 %.not.i44, label %lean_dec.exit24, label %89

89:                                               ; preds = %88
  tail call void @lean_dec_ref_cold(ptr noundef nonnull %6) #5
  br label %lean_dec.exit24

lean_dec.exit24:                                  ; preds = %89, %88, %86, %lean_dec.exit25
  %90 = ptrtoint ptr %5 to i64
  %91 = and i64 %90, 1
  %.not55 = icmp eq i64 %91, 0
  br i1 %.not55, label %92, label %lean_dec.exit

92:                                               ; preds = %lean_dec.exit24
  %93 = load i32, ptr %5, align 4, !tbaa !10
  %94 = icmp sgt i32 %93, 1
  br i1 %94, label %95, label %97, !prof !13

95:                                               ; preds = %92
  %96 = add nsw i32 %93, -1
  store i32 %96, ptr %5, align 4, !tbaa !10
  br label %lean_dec.exit

97:                                               ; preds = %92
  %.not.i46 = icmp eq i32 %93, 0
  br i1 %.not.i46, label %lean_dec.exit, label %98

98:                                               ; preds = %97
  tail call void @lean_dec_ref_cold(ptr noundef nonnull %5) #5
  br label %lean_dec.exit

lean_dec.exit:                                    ; preds = %98, %97, %95, %lean_dec.exit24
  ret ptr %26
}